; Function Attrs: mustprogress nounwind uwtable
define internal fastcc noundef range(i32 0, 4) i32 @_ZL24decodeUImmNonZeroOperandILj6EEN4llvm14MCDisassembler12DecodeStatusERNS0_6MCInstEjlPKS1_(ptr noundef nonnull align 8 dereferenceable(128) %0, i32 noundef %1) unnamed_addr #0 {
  %3 = icmp eq i32 %1, 0
  br i1 %3, label %17, label %4

4:                                                ; preds = %2
  %5 = getelementptr inbounds nuw i8, ptr %0, i64 16
  %6 = tail call noundef i64 @_ZNK4llvm15SmallVectorBaseIjE4sizeEv(ptr noundef nonnull align 8 dereferenceable(16) %5) #10
  %7 = add i64 %6, 1
  %8 = tail call noundef i64 @_ZNK4llvm15SmallVectorBaseIjE8capacityEv(ptr noundef nonnull align 8 dereferenceable(16) %5) #10
  %.not.i.i.i.i.i = icmp ugt i64 %7, %8
  br i1 %.not.i.i.i.i.i, label %9, label %_ZL17decodeUImmOperandILj6EEN4llvm14MCDisassembler12DecodeStatusERNS0_6MCInstEjlPKS1_.exit

9:                                                ; preds = %4
  %10 = getelementptr inbounds nuw i8, ptr %0, i64 32
  tail call void @_ZN4llvm15SmallVectorBaseIjE8grow_podEPvmm(ptr noundef nonnull align 8 dereferenceable(16) %5, ptr noundef nonnull %10, i64 noundef %7, i64 noundef 16) #10
  br label %_ZL17decodeUImmOperandILj6EEN4llvm14MCDisassembler12DecodeStatusERNS0_6MCInstEjlPKS1_.exit

_ZL17decodeUImmOperandILj6EEN4llvm14MCDisassembler12DecodeStatusERNS0_6MCInstEjlPKS1_.exit: ; preds = %4, %9
  %11 = zext i32 %1 to i64
  %12 = load ptr, ptr %5, align 8
  %13 = tail call noundef i64 @_ZNK4llvm15SmallVectorBaseIjE4sizeEv(ptr noundef nonnull align 8 dereferenceable(16) %5) #10
  %14 = getelementptr inbounds %"class.llvm::MCOperand", ptr %12, i64 %13
  store i8 2, ptr %14, align 1
  %.sroa.22.0..sroa_idx.i.i.i = getelementptr inbounds nuw i8, ptr %14, i64 8
  store i64 %11, ptr %.sroa.22.0..sroa_idx.i.i.i, align 1
  %15 = tail call noundef i64 @_ZNK4llvm15SmallVectorBaseIjE4sizeEv(ptr noundef nonnull align 8 dereferenceable(16) %5) #10
  %16 = add i64 %15, 1
  tail call void @_ZN4llvm15SmallVectorBaseIjE8set_sizeEm(ptr noundef nonnull align 8 dereferenceable(16) %5, i64 noundef %16) #10
  br label %17

17:                                               ; preds = %2, %_ZL17decodeUImmOperandILj6EEN4llvm14MCDisassembler12DecodeStatusERNS0_6MCInstEjlPKS1_.exit
  %.0 = phi i32 [ 3, %_ZL17decodeUImmOperandILj6EEN4llvm14MCDisassembler12DecodeStatusERNS0_6MCInstEjlPKS1_.exit ], [ 0, %2 ]
  ret i32 %.0
}